; Function Attrs: inlinehint mustprogress nofree norecurse nosync nounwind willreturn memory(read, argmem: readwrite, inaccessiblemem: none) uwtable
define internal fastcc range(i32 0, 3) i32 @decode012(ptr noundef captures(none) %0) unnamed_addr #4 {
  %2 = getelementptr inbounds nuw i8, ptr %0, i64 16
  %3 = load i32, ptr %2, align 8, !tbaa !62
  %4 = load ptr, ptr %0, align 8, !tbaa !63
  %5 = lshr i32 %3, 3
  %6 = zext nneg i32 %5 to i64
  %7 = getelementptr inbounds nuw i8, ptr %4, i64 %6
  %8 = load i8, ptr %7, align 1, !tbaa !64
  %9 = getelementptr inbounds nuw i8, ptr %0, i64 24
  %10 = load i32, ptr %9, align 8, !tbaa !65
  %11 = icmp slt i32 %3, %10
  %12 = zext i1 %11 to i32
  %spec.select.i = add i32 %3, %12
  %13 = zext i8 %8 to i32
  %14 = and i32 %3, 7
  store i32 %spec.select.i, ptr %2, align 8, !tbaa !62
  %15 = lshr exact i32 128, %14
  %16 = and i32 %15, %13
  %17 = icmp eq i32 %16, 0
  br i1 %17, label %31, label %18

18:                                               ; preds = %1
  %19 = lshr i32 %spec.select.i, 3
  %20 = zext nneg i32 %19 to i64
  %21 = getelementptr inbounds nuw i8, ptr %4, i64 %20
  %22 = load i8, ptr %21, align 1, !tbaa !64
  %23 = icmp slt i32 %spec.select.i, %10
  %24 = zext i1 %23 to i32
  %spec.select.i3 = add i32 %spec.select.i, %24
  %25 = zext i8 %22 to i32
  %26 = and i32 %spec.select.i, 7
  %27 = shl nuw nsw i32 %25, %26
  %28 = lshr i32 %27, 7
  store i32 %spec.select.i3, ptr %2, align 8, !tbaa !62
  %29 = and i32 %28, 1
  %30 = add nuw nsw i32 %29, 1
  br label %31

31:                                               ; preds = %1, %18
  %.0 = phi i32 [ %30, %18 ], [ 0, %1 ]
  ret i32 %.0
}